(dp0
S'idx2w'
p1
(lp2
VPAD
p3
aVSOS
p4
aVEOS
p5
aVWELCOME
p6
aVDBSEARCH
p7
aVmodeldesc
p8
aV\u5361\u7f57\u62c9
p9
aVQUERY
p10
aVask_modeldesc
p11
aV\u8f66\u578b
p12
aVparalist
p13
aV\u53c2\u6570\u914d\u7f6e
p14
aVSHOWALL
p15
aVask_factoryprice
p16
aV\u4ef7\u683c
p17
aVHOW
p18
aVcomment
p19
aV\u54c1\u8d28
p20
aVask_rfuelconsumption
p21
aV\u6cb9\u8017
p22
aVCOMPARE
p23
aV\u82f1\u6717
p24
aV\u745e\u98ces32017\u6b3e1.5l\u624b\u52a8
p25
aV\u541b\u5a012015\u6b3e1.6t\u7cbe\u82f1\u6280\u672f\u578b
p26
aV\u541b\u5a012015\u6b3e2.0tgs\u8c6a\u60c5\u8fd0\u52a8\u7248
p27
aV\u7cbe\u82f1\u6280\u672f\u578b
p28
aV\u8c6a\u60c5\u8fd0\u52a8\u7248
p29
aVmini2016\u6b3e2.0
p30
aVPAYMENT
p31
aV\u8bf7\u95ee
p32
aV\u662f
p33
aV\u60f3
p34
aV\u770b\u770b
p35
aV\u5176\u4ed6
p36
aV\u7684
p37
aV\u8f66
p38
aV\u5417
p39
aV\uff1f
p40
aV\u8fd8\u8981
p41
aV\u7ee7\u7eed
p42
aV\u4e86\u89e3
p43
aV\u4e4b\u524d
p44
aV\u770b
p45
aV\u5361\u7f57
p46
aV\u62c9
p47
aV\u4e48
p48
aV\u597d
p49
aV\u5427
p50
aV\uff0c
p51
aV\u518d\u89c1
p52
aV\u6b22\u8fce
p53
aV\u4e0b\u6b21
p54
aV\u5149\u4e34
p55
aV\u541b\u5a01
p56
aV\u591a\u5c11\u94b1
p57
aV\u60a8
p58
aV\u4ec0\u4e48
p59
aV\u5462
p60
aV\u53c2\u6570
p61
aV\u914d\u7f6e
p62
aV\u6027\u80fd
p63
aV\u5185\u9970
p64
aV\u7b49
p65
aV\u8fd8\u6709
p66
aV\u60f3\u8981
p67
aV\u5185\u5bb9
p68
aV\u74e6\u529b
p69
aV\u4e5f
p70
aV\u652f\u6301
p71
aV\u8d2d\u8f66
p72
aV\u9884\u7b97
p73
aV\u3001
p74
aV\u53e3\u7891
p75
aV\u5bf9\u6bd4
p76
aV\u529f\u80fd
p77
aV\u54e6
p78
aV\uff5e
p79
aV\u963f\u7279\u5179
p80
aV\u798f\u745e\u8fbe2014\u6b3e1.0l\u9e3f\u8fd0\u7248\u6807\u51c6\u578bda465
p81
aV\u7cbe\u82f1\u6280\u672f\u578b \u8c6a\u60c5\u8fd0\u52a8\u7248
p82
aVor
p83
aV\u548c
p84
aV\u7ecf\u5178\u5168\u987a2016\u6b3e2.8t\u67f4\u6cb9\u957f\u8f743\u5ea7\u9ad8\u9876\u53a2\u5f0f\u8fd0\u8f93\u8f66
p85
aV\u53c2\u6570\u8868
p86
aVprefer
p87
aV\u7ec6\u8282
p88
aVask_neishi
p89
aV\u5b9d\u9a6c3\u7cfb
p90
aVengine
p91
aV201
p92
aV\u6717\u9038
p93
aVtransmisson
p94
aVfronttirespec
p95
aVbodystruc1
p96
aVseatnum
p97
aVautowarranty
p98
aVfrontsuspensiontype
p99
aVrearsuspensiontype
p100
aVfactory
p101
aVfuellabel
p102
aVdrivemode
p103
aVbodystruc2
p104
aVspeakernum
p105
aVmaxtorquespeed
p106
aVfactoryprice
p107
aVlenwidhig
p108
aVenginemodel
p109
aV\u54c8\u5f17h92016\u6b3e2.0t\u7cbe\u82f1\u578b
p110
aV\u9a7e\u9a76
p111
aV\u4e30\u987a2011\u6b3e1.3l\u8c6a\u534e\u578b
p112
aV\u96ea\u94c1\u9f99c5
p113
aV\u4e1c\u98ce\u98ce\u51493302014\u6b3e1.3l\u624b\u52a8
p114
aV\u5f53\u524d
p115
aV\u770b\u8f66
p116
aV,
p117
aV\u6362
p118
aV\u5230
p119
aV\u7cbe\u82f1
p120
aV\u6280\u672f\u578b
p121
aV\u8c6a\u60c5
p122
aV\u8fd0\u52a8\u7248
p123
aV\u957f\u5b89cs75
p124
aV\u51ef\u7f8e\u745e
p125
aV\u5317\u4eac\u73b0\u4ee3ix35201
p126
aV\u660e\u95102017\u6b3e
p127
aV\u957f\u5b89
p128
aVCS75
p129
aV\u96ea\u94c1\u9f99
p130
aVCOMBINE
p131
aV\u5965\u8fears52
p132
aV\u51ef\u8d8a2015\u6b3e1.5l\u624b\u52a8\u5c0a
p133
aVC5
p134
aV\u4e911002014\u6b3e\u4e911
p135
aV\u91d1\u65c5\u6d77\u72ee2010
p136
aV\u91d1\u65c5
p137
aV\u6d77\u72ee
p138
aV2010
p139
aV\u5965\u8feaa32015\u6b3e
p140
aV\u4f20\u797aga3s\u89c6\u754c2014\u6b3e1
p141
aV\u963f\u7279
p142
aV\u5179
p143
aV\u96c5\u79d1\u4ed52014\u6b3e3.8gd
p144
aV\u4e1c\u98ce\u98ce\u795el602015\u6b3e1.8l\u81ea\u52a8\u65b0
p145
aV\u957f\u57cec502016\u6b3e1.5t\u624b\u52a8\u8212\u9002
p146
aV\u8d77\u4e9ak22015\u6b3e
p147
aV\u8d77\u4e9a
p148
aVK22015
p149
aV\u6b3e
p150
aV\u5317\u6c7d\u5a01\u65fas502016\u6b3e1.5
p151
aV\u54c8\u5f17h22016\u6b3e\u7ea2\u68071.5t
p152
aV\u798f\u7530\u98ce\u666f2014\u6b3e
p153
aV\u5b9d\u6c83bx7
p154
aV\u4f17\u6cf0z5002015\u6b3e
p155
aV\u96f7\u514b\u8428\u65afct2015\u6b3ect200
p156
aV\u96f7\u514b\u8428\u65af
p157
aVCT2015
p158
aVCT200
p159
aV\u5fa1\u98ce2016\u6b3e3.0t\u9886\u5c0a\u7248\u9876\u914d\u7c73\u8272\u5185\u9970\u77ed
p160
aV\u798f\u7530\u98ce\u666f2014\u6b3e2.0l\u5feb\u8fd0\u6807\u51c6\u578b\u957f\u8f74\u7248\u4f4e
p161
aV\u666f\u9038s502016\u6b3e
p162
aV\u601d\u57df
p163
aVl2
p164
aV\u7d22\u5170\u62582015\u6b3e\u7d22\u5170\u6258
p165
aV4l
p166
aV\u6c7d\u6cb94wd\u5b9a\u5236\u72485
p167
aV\u5b9d\u9a6c
p168
aV3
p169
aV\u7cfb
p170
aV\u62d3\u9646\u80052015
p171
aVminiroadst
p172
aVMINIROADST
p173
aV\u8bb4\u6b4c
p174
aV20
p175
aV\u51ef\u7f8e\u745e 20
p176
aVnumber
p177
aVMINI2016
p178
aV2.0
p179
aV\u6668\u98ce2014\u6b3e\u9886\u98ce\u7248
p180
aV\u8428\u666e2015\u6b3e2.8t\u4e24\u9a71\u8c6a\u534e\u72485555
p181
aV\u4e1c\u5357dx7
p182
aV\u4e1c\u5357
p183
aVDX7
p184
aV\u4e1c\u98ce\u5c0f\u5eb7k0220
p185
aV\u9ec4\u6d77n22015\u6b3e2.8t
p186
aV\u8f69\u90382016\u6b3e\u7ecf\u51781.6
p187
aV\u91d1\u676f\u5927\u6d77\u72ee
p188
aV\u65b0\u4e16\u4ee3\u5168\u987a2016\u6b3e2.4t
p189
aV\u4e1c\u98ce\u5c0f\u5eb7c312016\u6b3e1.2l
p190
aV\u83f1\u667a2017\u6b3e
p191
aV\u83f1\u667a
p192
aV2017
p193
aV\u798f\u745e\u8fea2016\u6b3e1.6lmtgl
p194
aV\u4e1c\u98ce\u98ce\u795eax32016\u6b3e
p195
aV\u5b9d\u9a6c3
p196
aV\u590f\u67172016\u6b3e380t
p197
aV\u6807\u81f44082015\u6b3e1
p198
aV\u5409\u5229gx72015\u6b3e\u7ecf\u5178\u72481.8l\u624b\u52a8
p199
aV\u51ef\u8fea\u62c9\u514bct62016
p200
aV\u6d77\u9a6cm62017\u6b3e1.5tcvt\u8fd0\u52a8
p201
aV\u6851\u5854\u7eb32015\u6b3e\u6d69\u7eb3
p202
aV\u4f17\u6cf0z70020
p203
aV\u4f17\u6cf0
p204
aVZ70020
p205
aV\u5954\u9a70cls\u7ea72016
p206
aV\u96ea\u94c1\u9f99c62017\u6b3e350thp
p207
aV\u98ce\u666fg72015\u6b3e2.0l\u5546\u65c5\u5bfc\u822a\u7248\u77ed\u8f74\u5e73\u98764
p208
aV\u63a2\u7d22\u8005\u21622011\u6b3e2.2
p209
aV\u91d1\u676f\u6d77\u72ee2014\u6b3e2.0l\u7b2c\u4e94\u4ee3
p210
aV2
p211
aV\u91d1\u676f\u6d77\u72ee
p212
aVpn\u8d27\u8f662010\u6b3e1.0l
p213
aV\u8428\u666e
p214
aV2015
p215
aV2.8
p216
aVT
p217
aV\u4e24\u9a71
p218
aV\u8c6a\u534e\u7248
p219
aV5555
p220
aV\u5c0f\u6d77\u72eex302016
p221
aV\u7ec5\u5b9dd702013\u6b3e1.8t\u653f
p222
aV\u666f\u9038x32016\u6b3e1.5
p223
aV\u4f17\u6cf0z70
p224
aVZ70
p225
aV\u6377\u8c79f-pace2016\u6b3e3.0sc\u56db\u9a71r
p226
aV\u62d3\u9646\u80052016
p227
aV\u795e\u9a90 \u6b3e1.5l\u6c7d
p228
aV\u62d3\u9646\u80052015\u6b3e2.8ts\u7cfb\u5217\u67f4\u6cb9\u56db\u9a71\u81f3\u5c0a\u7248
p229
aV\u54c8\u5f17h52016\u6b3e\u7ecf\u5178
p230
aV\u5965\u8fea
p231
aVA32015
p232
aV\u7ecf\u5178\u5168\u987a2016\u6b3e2.4l\u6c7d\u6cb9\u957f\u8f7410\u5ea7\u9ad8\u9876\u7269\u6d41\u8f664g64s
p233
aV\u9a8a\u5a012015
p234
aV\u795e\u9a90
p235
aV\u6b3e1.5l\u6c7d
p236
aV\u541b\u8d8a
p237
aV\u96c5\u79d1\u4ed5
p238
aV\u91d1\u676f
p239
aV2014
p240
aVL
p241
aV\u7b2c\u4e94\u4ee3
p242
aV\u4e1c\u98ce\u98ce\u795eax7201
p243
aV\u534e\u6cf0iev23020
p244
aV\u5927\u8fc8x52017\u6b3e\u8d85\u503c\u7248
p245
aV\u4e1c\u98ce\u98ce\u51493602015\u6b3e1.5l\u624b\u52a8
p246
aV\u96c5\u79d1\u4ed5 20
p247
aV\u96c5\u79d1
p248
aV\u4ed5
p249
aV\u505a\u5de5\u7ec6\u8282
p250
aV\u542f\u60a62015\u6b3e1.6l\u624b\u52a8\u8212\u4eab
p251
aV\u6807\u81f43012016\u6b3e1.6l
p252
aV\u542f\u60a6
p253
aV1.6
p254
aV\u624b\u52a8
p255
aV\u8212\u4eab
p256
aV\u4e1c\u98ce\u98ce\u51493302016\u6b3e1.2l\u624b\u52a8\u57fa\u672c\u578bd
p257
aV\u9a90\u94c3t72016\u6b3e2.8t\u4e24\u9a71\u8212\u9002\u7248\u52a0\u957f\u8f74\u8dddje493zlq
p258
aV\u6b3e1.3l\u6c7d\u6cb9
p259
aV\u9a8f\u6d3ed60201
p260
aV\u9a8f\u6d3e
p261
aVD60201
p262
aV\u534e\u6cf0
p263
aVIEV23020
p264
aV\u590f\u6717
p265
aV2016
p266
aV380T
p267
aV\u5b9d\u9a6c4\u7cfb2016\u6b3e430igra
p268
aV\u660e\u9510
p269
aV\u6807\u81f4
p270
aV3012016
p271
aV\u795e\u9a90 \u6b3e1.3l\u6c7d\u6cb9
p272
aV308s20
p273
aVZ5002015
p274
aV\u4f20\u797a
p275
aVGA3S
p276
aV\u89c6\u754c
p277
aV1
p278
aV\u60a6\u7eb3
p279
aV<
p280
aVENGINE
p281
aV>
p282
aVTRANSMISSON
p283
aVAUTOWARRANTY
p284
aVFUELLABEL
p285
aVFRONTTIRESPEC
p286
aVSPEAKERNUM
p287
aVDRIVEMODE
p288
aVFACTORY
p289
aVMODELDESC
p290
aVFRONTSUSPENSIONTYPE
p291
aVREARSUSPENSIONTYPE
p292
aVBODYSTRUC2
p293
aVENGINEMODEL
p294
aVMAXTORQUESPEED
p295
aVBODYSTRUC1
p296
aVLENWIDHIG
p297
aVFACTORYPRICE
p298
aVTERMINOLOGY
p299
aVNUMBER
p300
aVSEATNUM
p301
aV(
p302
aV\u798f\u7530
p303
aV\u98ce\u666f
p304
aV\u4e1c\u98ce
p305
aV\u5c0f\u5eb7
p306
aVK0220
p307
aV\u5fa1\u98ce
p308
aV1.3
p309
aV\u6c7d\u6cb9
p310
aV\u9ec4\u6d77
p311
aVN22015
p312
aV4082015
p313
aV\u8f69\u9038
p314
aV\u7ecf\u5178
p315
aVFOLLOW
p316
aV\u8fd8\u662f
p317
aV\u76f4\u63a5
p318
aV\u8fdb\u5165
p319
aV\u4e3b\u9898
p320
aV\u8bf7
p321
aV\u9009\u62e9
p322
aV\u4e00\u8f86\u8f66
p323
aV\u53ef\u4ee5
p324
aV\u56de\u590d
p325
aV\u540d\u5b57
p326
aV\u7ed9
p327
aV~
p328
aV\u96c5\u9601
p329
aV\u98de\u5ea6
p330
aV\u98ce\u795e
p331
aVAX32016
p332
aV\u666f\u9038
p333
aVX32016
p334
aV1.5
p335
aV\u5409\u5229
p336
aVGX72015
p337
aV\u7248
p338
aV1.8
p339
asS'w2idx'
p340
(dp341
g281
I278
sg183
I180
sg301
I298
sg212
I209
sg274
I271
sg116
I113
sg231
I228
sg235
I232
sg59
I56
sg41
I38
sg266
I263
sg243
I240
sg202
I199
sg101
I98
sg5
I2
sg3
I0
sg325
I322
sg127
I124
sg275
I272
sg190
I187
sg42
I39
sg264
I261
sg299
I296
sg234
I231
sg72
I69
sg175
I172
sg21
I18
sg326
I323
sg146
I143
sg316
I313
sg133
I130
sg117
I114
sg271
I268
sg27
I24
sg322
I319
sg119
I116
sg36
I33
sg247
I244
sg215
I212
sg240
I237
sg193
I190
sg132
I129
sg64
I61
sg150
I147
sg295
I292
sg121
I118
sg185
I182
sg290
I287
sg48
I45
sg339
I336
sg195
I192
sg191
I188
sg241
I238
sg177
I174
sg220
I217
sg88
I85
sg161
I158
sg323
I320
sg217
I214
sg225
I222
sg112
I109
sg129
I126
sg239
I236
sg79
I76
sg256
I253
sg153
I150
sg118
I115
sg38
I35
sg35
I32
sg298
I295
sg232
I229
sg6
I3
sg331
I328
sg308
I305
sg34
I31
sg164
I161
sg294
I291
sg115
I112
sg194
I191
sg122
I119
sg75
I72
sg204
I201
sg85
I82
sg76
I73
sg312
I309
sg296
I293
sg196
I193
sg66
I63
sg37
I34
sg292
I289
sg222
I219
sg84
I81
sg135
I132
sg291
I288
sg227
I224
sg56
I53
sg171
I168
sg39
I36
sg237
I234
sg263
I260
sg110
I107
sg179
I176
sg277
I274
sg233
I230
sg334
I331
sg94
I91
sg270
I267
sg52
I49
sg335
I332
sg50
I47
sg58
I55
sg337
I334
sg55
I52
sg33
I30
sg267
I264
sg223
I220
sg169
I166
sg180
I177
sg109
I106
sg333
I330
sg200
I197
sg172
I169
sg246
I243
sg28
I25
sg186
I183
sg93
I90
sg314
I311
sg151
I148
sg279
I276
sg176
I173
sg65
I62
sg86
I83
sg62
I59
sg238
I235
sg285
I282
sg242
I239
sg261
I258
sg318
I315
sg332
I329
sg9
I6
sg286
I283
sg302
I299
sg248
I245
sg170
I167
sg70
I67
sg31
I28
sg77
I74
sg198
I195
sg307
I304
sg14
I11
sg99
I96
sg324
I321
sg29
I26
sg81
I78
sg57
I54
sg336
I333
sg68
I65
sg80
I77
sg15
I12
sg143
I140
sg90
I87
sg208
I205
sg49
I46
sg83
I80
sg251
I248
sg19
I16
sg136
I133
sg283
I280
sg293
I290
sg89
I86
sg156
I153
sg199
I196
sg287
I284
sg87
I84
sg51
I48
sg7
I4
sg201
I198
sg95
I92
sg125
I122
sg229
I226
sg236
I233
sg262
I259
sg73
I70
sg17
I14
sg284
I281
sg13
I10
sg218
I215
sg272
I269
sg98
I95
sg197
I194
sg142
I139
sg130
I127
sg20
I17
sg53
I50
sg304
I301
sg207
I204
sg147
I144
sg126
I123
sg228
I225
sg259
I256
sg173
I170
sg12
I9
sg148
I145
sg134
I131
sg282
I279
sg91
I88
sg8
I5
sg54
I51
sg181
I178
sg128
I125
sg160
I157
sg226
I223
sg47
I44
sg138
I135
sg63
I60
sg106
I103
sg289
I286
sg157
I154
sg103
I100
sg174
I171
sg155
I152
sg249
I246
sg213
I210
sg154
I151
sg311
I308
sg327
I324
sg297
I294
sg144
I141
sg25
I22
sg60
I57
sg221
I218
sg309
I306
sg140
I137
sg253
I250
sg268
I265
sg209
I206
sg44
I41
sg139
I136
sg203
I200
sg211
I208
sg216
I213
sg315
I312
sg149
I146
sg321
I318
sg107
I104
sg265
I262
sg10
I7
sg276
I273
sg11
I8
sg108
I105
sg214
I211
sg328
I325
sg74
I71
sg189
I186
sg254
I251
sg338
I335
sg205
I202
sg24
I21
sg100
I97
sg184
I181
sg45
I42
sg245
I242
sg310
I307
sg300
I297
sg111
I108
sg114
I111
sg145
I142
sg16
I13
sg305
I302
sg165
I162
sg67
I64
sg219
I216
sg313
I310
sg40
I37
sg252
I249
sg329
I326
sg273
I270
sg210
I207
sg30
I27
sg317
I314
sg152
I149
sg330
I327
sg69
I66
sg102
I99
sg278
I275
sg4
I1
sg167
I164
sg61
I58
sg46
I43
sg120
I117
sg269
I266
sg137
I134
sg250
I247
sg257
I254
sg224
I221
sg206
I203
sg92
I89
sg244
I241
sg260
I257
sg123
I120
sg178
I175
sg26
I23
sg32
I29
sg163
I160
sg158
I155
sg97
I94
sg71
I68
sg18
I15
sg105
I102
sg306
I303
sg258
I255
sg182
I179
sg113
I110
sg303
I300
sg96
I93
sg188
I185
sg23
I20
sg104
I101
sg124
I121
sg78
I75
sg159
I156
sg187
I184
sg192
I189
sg255
I252
sg141
I138
sg131
I128
sg82
I79
sg288
I285
sg320
I317
sg166
I163
sg43
I40
sg162
I159
sg319
I316
sg168
I165
sg230
I227
sg280
I277
sg22
I19
ss.