(dp0
S'idx2w'
p1
(lp2
VPAD
p3
aVSOS
p4
aVEOS
p5
aVWELCOME
p6
aVDBSEARCH
p7
aVmodeldesc
p8
aV\u5361\u7f57\u62c9
p9
aVQUERY
p10
aVask_modeldesc
p11
aV\u8f66\u578b
p12
aVparalist
p13
aV\u53c2\u6570\u914d\u7f6e
p14
aVSHOWALL
p15
aVask_factoryprice
p16
aV\u4ef7\u683c
p17
aVHOW
p18
aVcomment
p19
aV\u54c1\u8d28
p20
aVask_rfuelconsumption
p21
aV\u6cb9\u8017
p22
aVCOMPARE
p23
aV\u82f1\u6717
p24
aV\u745e\u98ces32017\u6b3e1.5l\u624b\u52a8
p25
aV\u541b\u5a012015\u6b3e1.6t\u7cbe\u82f1\u6280\u672f\u578b
p26
aV\u541b\u5a012015\u6b3e2.0tgs\u8c6a\u60c5\u8fd0\u52a8\u7248
p27
aV\u7cbe\u82f1\u6280\u672f\u578b
p28
aV\u8c6a\u60c5\u8fd0\u52a8\u7248
p29
aVmini2016\u6b3e2.0
p30
aVPAYMENT
p31
aV\u8bf7\u95ee
p32
aV\u662f
p33
aV\u60f3
p34
aV\u770b\u770b
p35
aV\u5176\u4ed6
p36
aV\u7684
p37
aV\u8f66
p38
aV\u5417
p39
aV\uff1f
p40
aV\u8fd8\u8981
p41
aV\u7ee7\u7eed
p42
aV\u4e86\u89e3
p43
aV\u4e4b\u524d
p44
aV\u770b
p45
aV\u5361\u7f57
p46
aV\u62c9
p47
aV\u4e48
p48
aV\u597d
p49
aV\u5427
p50
aV\uff0c
p51
aV\u518d\u89c1
p52
aV\u6b22\u8fce
p53
aV\u4e0b\u6b21
p54
aV\u5149\u4e34
p55
aV\u541b\u5a01
p56
aV\u591a\u5c11\u94b1
p57
aV\u60a8
p58
aV\u4ec0\u4e48
p59
aV\u5462
p60
aV\u53c2\u6570
p61
aV\u914d\u7f6e
p62
aV\u6027\u80fd
p63
aV\u5185\u9970
p64
aV\u7b49
p65
aV\u8fd8\u6709
p66
aV\u60f3\u8981
p67
aV\u5185\u5bb9
p68
aV\u74e6\u529b
p69
aV\u4e5f
p70
aV\u652f\u6301
p71
aV\u8d2d\u8f66
p72
aV\u9884\u7b97
p73
aV\u3001
p74
aV\u53e3\u7891
p75
aV\u5bf9\u6bd4
p76
aV\u529f\u80fd
p77
aV\u54e6
p78
aV\uff5e
p79
aV\u963f\u7279\u5179
p80
aV\u798f\u745e\u8fbe2014\u6b3e1.0l\u9e3f\u8fd0\u7248\u6807\u51c6\u578bda465
p81
aV\u7cbe\u82f1\u6280\u672f\u578b \u8c6a\u60c5\u8fd0\u52a8\u7248
p82
aVor
p83
aV\u548c
p84
aV\u7ecf\u5178\u5168\u987a2016\u6b3e2.8t\u67f4\u6cb9\u957f\u8f743\u5ea7\u9ad8\u9876\u53a2\u5f0f\u8fd0\u8f93\u8f66
p85
aV\u53c2\u6570\u8868
p86
aVprefer
p87
aV\u7ec6\u8282
p88
aVask_neishi
p89
aV\u5b9d\u9a6c3\u7cfb
p90
aVengine
p91
aV201
p92
aV\u6717\u9038
p93
aVtransmisson
p94
aVfronttirespec
p95
aVbodystruc1
p96
aVseatnum
p97
aVautowarranty
p98
aVfrontsuspensiontype
p99
aVrearsuspensiontype
p100
aVfactory
p101
aVfuellabel
p102
aVdrivemode
p103
aVbodystruc2
p104
aVspeakernum
p105
aVmaxtorquespeed
p106
aVfactoryprice
p107
aVlenwidhig
p108
aVenginemodel
p109
aV\u54c8\u5f17h92016\u6b3e2.0t\u7cbe\u82f1\u578b
p110
aV\u9a7e\u9a76
p111
aV\u4e30\u987a2011\u6b3e1.3l\u8c6a\u534e\u578b
p112
aV\u96ea\u94c1\u9f99c5
p113
aV\u4e1c\u98ce\u98ce\u51493302014\u6b3e1.3l\u624b\u52a8
p114
aV\u5f53\u524d
p115
aV\u770b\u8f66
p116
aV,
p117
aV\u6362
p118
aV\u5230
p119
aV\u7cbe\u82f1
p120
aV\u6280\u672f\u578b
p121
aV\u8c6a\u60c5
p122
aV\u8fd0\u52a8\u7248
p123
aV\u957f\u5b89cs75
p124
aV\u51ef\u7f8e\u745e
p125
aV\u5317\u4eac\u73b0\u4ee3ix35201
p126
aV\u660e\u95102017\u6b3e
p127
aV\u957f\u5b89
p128
aVCS75
p129
aV\u96ea\u94c1\u9f99
p130
aVCOMBINE
p131
aV\u5965\u8fears52
p132
aV\u51ef\u8d8a2015\u6b3e1.5l\u624b\u52a8\u5c0a
p133
aVC5
p134
aV\u4e911002014\u6b3e\u4e911
p135
aV\u91d1\u65c5\u6d77\u72ee2010
p136
aV\u91d1\u65c5
p137
aV\u6d77\u72ee
p138
aV2010
p139
aV\u5965\u8feaa32015\u6b3e
p140
aV\u4f20\u797aga3s\u89c6\u754c2014\u6b3e1
p141
aV\u963f\u7279
p142
aV\u5179
p143
aV\u96c5\u79d1\u4ed52014\u6b3e3.8gd
p144
aV\u4e1c\u98ce\u98ce\u795el602015\u6b3e1.8l\u81ea\u52a8\u65b0
p145
aV\u957f\u57cec502016\u6b3e1.5t\u624b\u52a8\u8212\u9002
p146
aV\u8d77\u4e9ak22015\u6b3e
p147
aV\u8d77\u4e9a
p148
aVK22015
p149
aV\u6b3e
p150
aV\u5317\u6c7d\u5a01\u65fas502016\u6b3e1.5
p151
aV\u54c8\u5f17h22016\u6b3e\u7ea2\u68071.5t
p152
aV\u798f\u7530\u98ce\u666f2014\u6b3e
p153
aV\u5b9d\u6c83bx7
p154
aV\u4f17\u6cf0z5002015\u6b3e
p155
aV\u96f7\u514b\u8428\u65afct2015\u6b3ect200
p156
aV\u96f7\u514b\u8428\u65af
p157
aVCT2015
p158
aVCT200
p159
aV\u5fa1\u98ce2016\u6b3e3.0t\u9886\u5c0a\u7248\u9876\u914d\u7c73\u8272\u5185\u9970\u77ed
p160
aV\u798f\u7530\u98ce\u666f2014\u6b3e2.0l\u5feb\u8fd0\u6807\u51c6\u578b\u957f\u8f74\u7248\u4f4e
p161
aV\u666f\u9038s502016\u6b3e
p162
aV\u601d\u57df
p163
aVl2
p164
aV\u7d22\u5170\u62582015\u6b3e\u7d22\u5170\u6258
p165
aV4l
p166
aV\u6c7d\u6cb94wd\u5b9a\u5236\u72485
p167
aV\u5b9d\u9a6c
p168
aV3
p169
aV\u7cfb
p170
aV\u62d3\u9646\u80052015
p171
aVminiroadst
p172
aVMINIROADST
p173
aV\u8bb4\u6b4c
p174
aV20
p175
aV\u51ef\u7f8e\u745e 20
p176
aVnumber
p177
asS'w2idx'
p178
(dp179
g116
I113
sg59
I56
sg41
I38
sg101
I98
sg5
I2
sg3
I0
sg127
I124
sg42
I39
sg72
I69
sg175
I172
sg21
I18
sg146
I143
sg133
I130
sg117
I114
sg27
I24
sg119
I116
sg36
I33
sg132
I129
sg64
I61
sg150
I147
sg121
I118
sg48
I45
sg177
I174
sg88
I85
sg161
I158
sg112
I109
sg129
I126
sg79
I76
sg153
I150
sg118
I115
sg38
I35
sg35
I32
sg6
I3
sg34
I31
sg164
I161
sg115
I112
sg122
I119
sg75
I72
sg85
I82
sg76
I73
sg66
I63
sg37
I34
sg84
I81
sg135
I132
sg56
I53
sg171
I168
sg39
I36
sg110
I107
sg94
I91
sg52
I49
sg50
I47
sg58
I55
sg55
I52
sg33
I30
sg169
I166
sg109
I106
sg172
I169
sg28
I25
sg93
I90
sg151
I148
sg176
I173
sg65
I62
sg86
I83
sg62
I59
sg9
I6
sg170
I167
sg70
I67
sg31
I28
sg77
I74
sg14
I11
sg99
I96
sg29
I26
sg81
I78
sg57
I54
sg68
I65
sg80
I77
sg15
I12
sg143
I140
sg90
I87
sg49
I46
sg83
I80
sg19
I16
sg136
I133
sg89
I86
sg156
I153
sg87
I84
sg51
I48
sg7
I4
sg95
I92
sg125
I122
sg73
I70
sg17
I14
sg13
I10
sg98
I95
sg142
I139
sg130
I127
sg20
I17
sg53
I50
sg147
I144
sg126
I123
sg173
I170
sg12
I9
sg148
I145
sg134
I131
sg91
I88
sg8
I5
sg54
I51
sg128
I125
sg160
I157
sg47
I44
sg138
I135
sg63
I60
sg106
I103
sg157
I154
sg103
I100
sg174
I171
sg155
I152
sg154
I151
sg144
I141
sg25
I22
sg60
I57
sg140
I137
sg44
I41
sg139
I136
sg149
I146
sg107
I104
sg10
I7
sg11
I8
sg108
I105
sg74
I71
sg24
I21
sg100
I97
sg45
I42
sg111
I108
sg114
I111
sg145
I142
sg16
I13
sg165
I162
sg67
I64
sg40
I37
sg30
I27
sg152
I149
sg69
I66
sg102
I99
sg4
I1
sg167
I164
sg61
I58
sg46
I43
sg120
I117
sg137
I134
sg92
I89
sg123
I120
sg26
I23
sg32
I29
sg163
I160
sg158
I155
sg97
I94
sg71
I68
sg18
I15
sg105
I102
sg113
I110
sg96
I93
sg23
I20
sg104
I101
sg124
I121
sg78
I75
sg159
I156
sg141
I138
sg131
I128
sg82
I79
sg166
I163
sg43
I40
sg162
I159
sg168
I165
sg22
I19
ss.