(dp0
S'idx2w'
p1
(lp2
VPAD
p3
aVUNK
p4
aVEOS
p5
aV\u4f60\u597d
p6
aVWELCOME
p7
aV\u5361\u7f57
p8
aV\u62c9
p9
aVDBSEARCH
p10
aVmodeldesc
p11
aV\u5361\u7f57\u62c9
p12
aV\u8f66\u578b
p13
aVQUERY
p14
aVask_modeldesc
p15
aV\u53c2\u6570
p16
aV\u914d\u7f6e
p17
aVparalist
p18
aV\u53c2\u6570\u914d\u7f6e
p19
aV\u663e\u793a
p20
aV\u6240\u6709
p21
aVSHOWALL
p22
aV\u4ef7\u683c
p23
aVask_factoryprice
p24
aV\u53e3\u7891
p25
aVHOW
p26
aV\u90fd
p27
aV\u6709
p28
aV\u4ec0\u4e48
p29
aV\u54c1\u8d28
p30
aVcomment
p31
aV\u9884\u7b97
p32
aV\u6cb9\u8017
p33
aV\u600e\u4e48\u6837
p34
aVask_rfuelconsumption
p35
aV\u6bd4\u8f83
p36
aVCOMPARE
p37
aV\u82f1\u6717
p38
aV\u548c
p39
aV\u745e\u98ce
p40
aVS32017
p41
aV\u6b3e
p42
aV1.5
p43
aVL
p44
aV\u624b\u52a8
p45
aV\u8c6a\u7cfb
p46
aV\u533a\u522b
p47
aV\u745e\u98ces32017\u6b3e1.5l\u624b\u52a8
p48
aV\u541b\u5a01
p49
aV2015
p50
aV1.6
p51
aVT
p52
aV\u7cbe\u82f1
p53
aV\u6280\u672f\u578b
p54
aV2.0
p55
aVTGS
p56
aV\u8c6a\u60c5
p57
aV\u8fd0\u52a8\u7248
p58
aV\u76f8\u6bd4
p59
aV\u541b\u5a012015\u6b3e1.6t\u7cbe\u82f1\u6280\u672f\u578b
p60
aV\u541b\u5a012015\u6b3e2.0tgs\u8c6a\u60c5\u8fd0\u52a8\u7248
p61
aV\u7cbe\u82f1\u6280\u672f\u578b
p62
aV\u8c6a\u60c5\u8fd0\u52a8\u7248
p63
aVMINI2016
p64
aVTCOOPERSS
p65
aV\u591a\u5c11
p66
aV\u94b1
p67
aVmini2016\u6b3e2.0
p68
aV\u8d2d\u8f66
p69
aVPAYMENT
p70
aV\u4e0d\u770b
p71
aV\u4e86
p72
aV\u8bf7\u95ee
p73
aV\u662f
p74
aV\u60f3
p75
aV\u770b\u770b
p76
aV\u5176\u4ed6
p77
aV\u7684
p78
aV\u8f66
p79
aV\u5417
p80
aV\uff1f
p81
aV\u4e0d\u662f
p82
aV\u8fd8\u8981
p83
aV\u7ee7\u7eed
p84
aV\u4e86\u89e3
p85
aV\u4e4b\u524d
p86
aV\u770b
p87
aV\u4e48
p88
aV\u597d
p89
aV\u5427
p90
aV\uff0c
p91
aV\u518d\u89c1
p92
aV\u6b22\u8fce
p93
aV\u4e0b\u6b21
p94
aV\u5149\u4e34
p95
aV\u591a\u5c11\u94b1
p96
aV\u60a8
p97
aV\u5462
p98
aV\u6027\u80fd
p99
aV\u5185\u9970
p100
aV\u7b49
p101
aV\u8fd8\u6709
p102
aV\u60f3\u8981
p103
aV\u5185\u5bb9
p104
aV\u74e6\u529b
p105
aV\u4e5f
p106
aV\u652f\u6301
p107
aV\u3001
p108
aV\u5bf9\u6bd4
p109
aV\u529f\u80fd
p110
aV\u54e6
p111
aV\uff5e
p112
aV\u963f\u7279
p113
aV\u5179
p114
aV\u963f\u7279\u5179
p115
aV\u798f\u745e\u8fbe
p116
aV2014
p117
aV1.0
p118
aV\u9e3f\u8fd0
p119
aV\u7248
p120
aV\u6807\u51c6\u578b
p121
aVDA465
p122
aV\u7cfb\u6709
p123
aV\u798f\u745e\u8fbe2014\u6b3e1.0l\u9e3f\u8fd0\u7248\u6807\u51c6\u578bda465
p124
aV\u7cbe\u82f1\u6280\u672f\u578b \u8c6a\u60c5\u8fd0\u52a8\u7248
p125
aVor
p126
aV\u7ecf\u5178
p127
aV\u5168\u987a
p128
aV2016
p129
aV2.8
p130
aV\u67f4\u6cb9
p131
aV\u957f\u8f74
p132
aV3
p133
aV\u5ea7
p134
aV\u9ad8\u9876
p135
aV\u53a2\u5f0f
p136
aV\u8fd0\u8f93\u8f66
p137
aVJ
p138
aV\u7ecf\u5178\u5168\u987a2016\u6b3e2.8t\u67f4\u6cb9\u957f\u8f743\u5ea7\u9ad8\u9876\u53a2\u5f0f\u8fd0\u8f93\u8f66
p139
aV\u53c2\u6570\u8868
p140
aVprefer
p141
aV\u7ec6\u8282
p142
aVask_neishi
p143
aV\u7efc\u8ff0
p144
aV\u5b9d\u9a6c
p145
aV\u7cfb
p146
aV\u5b9d\u9a6c3\u7cfb
p147
aV\u6717
p148
aV\u9038
p149
aV201
p150
aVengine
p151
aV\u6717\u9038
p152
aVtransmisson
p153
aVfronttirespec
p154
aVbodystruc1
p155
aVseatnum
p156
aVautowarranty
p157
aVfrontsuspensiontype
p158
aVrearsuspensiontype
p159
aVfactory
p160
aVfuellabel
p161
aVdrivemode
p162
aVbodystruc2
p163
aVspeakernum
p164
aVmaxtorquespeed
p165
aVfactoryprice
p166
aVlenwidhig
p167
aVenginemodel
p168
aV\u54c8\u5f17
p169
aVH92016
p170
aV\u578b
p171
aV\u54c8\u5f17h92016\u6b3e2.0t\u7cbe\u82f1\u578b
p172
aV\u505a\u5de5
p173
aV\u9a7e\u9a76
p174
aV\u4e30\u987a
p175
aV2011
p176
aV1.3
p177
aV\u8c6a\u534e\u578b
p178
aV\u4e30\u987a2011\u6b3e1.3l\u8c6a\u534e\u578b
p179
aV\u96ea\u94c1\u9f99
p180
aVC5
p181
aV\u96ea\u94c1\u9f99c5
p182
aV\u4e1c\u98ce
p183
aV\u98ce\u5149
p184
aV3302014
p185
aV\u5b9e\u7cfb
p186
aV\u4e1c\u98ce\u98ce\u51493302014\u6b3e1.3l\u624b\u52a8
p187
aV\u8428\u666e
p188
aV\u4e24\u9a71
p189
aV\u8c6a\u534e\u7248
p190
aV5555
p191
aV\u5f53\u524d
p192
aV\u770b\u8f66
p193
aV,
p194
aV\u6362
p195
aV\u5230
p196
aV\u957f\u5b89
p197
aVCS75
p198
aV\u957f\u5b89cs75
p199
aV\u51ef\u7f8e\u745e
p200
aV\u5317\u4eac
p201
aV\u73b0\u4ee3
p202
aVix35201
p203
aV\u5317\u4eac\u73b0\u4ee3ix35201
p204
aV\u660e\u9510
p205
aV2017
p206
aV\u660e\u95102017\u6b3e
p207
aVCOMBINE
p208
aV\u5965\u8fea
p209
aVRS52
p210
aV\u5965\u8fears52
p211
aV\u51ef\u8d8a
p212
aV\u5c0a
p213
aV\u51ef\u8d8a2015\u6b3e1.5l\u624b\u52a8\u5c0a
p214
aV\u4e91
p215
aV1002014
p216
aV\u6b3e\u4e91
p217
aV1
p218
aV\u4e911002014\u6b3e\u4e911
p219
aV\u91d1\u65c5
p220
aV\u6d77\u72ee
p221
aV2010
p222
aV\u91d1\u65c5\u6d77\u72ee2010
p223
aVA32015
p224
aVSpor
p225
aV\u5965\u8feaa32015\u6b3e
p226
aV\u4f20\u797a
p227
aVGA3S
p228
aV\u89c6\u754c
p229
aV\u4f20\u797aga3s\u89c6\u754c2014\u6b3e1
p230
aV\u96c5\u79d1
p231
aV\u4ed5
p232
aV3.8
p233
aVGD
p234
aV\u96c5\u79d1\u4ed52014\u6b3e3.8gd
p235
aV\u98ce\u795e
p236
aVL602015
p237
aV1.8
p238
aV\u81ea\u52a8
p239
aV\u65b0
p240
aV\u4eab\u7cfb
p241
aV\u4e1c\u98ce\u98ce\u795el602015\u6b3e1.8l\u81ea\u52a8\u65b0
p242
aV\u957f\u57ce
p243
aVC502016
p244
aV\u8212\u9002
p245
aV\u957f\u57cec502016\u6b3e1.5t\u624b\u52a8\u8212\u9002
p246
aV\u8d77\u4e9a
p247
aVK22015
p248
aV\u8d77\u4e9ak22015\u6b3e
p249
aV\u5317\u6c7d
p250
aV\u5a01\u65fa
p251
aVS502016
p252
aV\u5317\u6c7d\u5a01\u65fas502016\u6b3e1.5
p253
aVH22016
p254
aV\u6b3e\u7ea2\u6807
p255
aV\u624b\u7cfb
p256
aV\u54c8\u5f17h22016\u6b3e\u7ea2\u68071.5t
p257
aV\u798f\u7530
p258
aV\u98ce\u666f
p259
aV\u798f\u7530\u98ce\u666f2014\u6b3e
p260
aV\u5b9d\u6c83
p261
aVBX7
p262
aV\u5b9d\u6c83bx7
p263
aV\u4f17\u6cf0
p264
aVZ5002015
p265
aV\u4f17\u6cf0z5002015\u6b3e
p266
aV\u96f7\u514b\u8428\u65af
p267
aVCT2015
p268
aVCT200
p269
aV\u96f7\u514b\u8428\u65afct2015\u6b3ect200
p270
aV\u5fa1\u98ce
p271
aV3.0
p272
aV\u9886\u5c0a\u7248
p273
aV\u9876\u914d
p274
aV\u7c73\u8272
p275
aV\u77ed
p276
aV\u8f74\u7cfb
p277
aV\u5fa1\u98ce2016\u6b3e3.0t\u9886\u5c0a\u7248\u9876\u914d\u7c73\u8272\u5185\u9970\u77ed
p278
aV\u5feb\u8fd0
p279
aV\u7248\u4f4e
p280
aV\u798f\u7530\u98ce\u666f2014\u6b3e2.0l\u5feb\u8fd0\u6807\u51c6\u578b\u957f\u8f74\u7248\u4f4e
p281
aV\u666f\u9038
p282
aV\u666f\u9038s502016\u6b3e
p283
aV\u601d\u57df
p284
aV\u7d22\u5170\u6258
p285
aV\u6b3e\u7d22\u5170\u6258
p286
aVL2
p287
aV.
p288
aV4L
p289
aV\u6c7d\u6cb9
p290
aV4WD
p291
aV\u5b9a\u5236
p292
aV5
p293
aVl2
p294
aV\u7d22\u5170\u62582015\u6b3e\u7d22\u5170\u6258
p295
aV4l
p296
aV\u6c7d\u6cb94wd\u5b9a\u5236\u72485
p297
aV\u62d3\u9646\u8005
p298
aV\u62d3\u9646\u80052015
p299
aVMINIROADST
p300
aVminiroadst
p301
aV\u8bb4\u6b4c
p302
aVCDX201
p303
aV20
p304
aV\u51ef\u7f8e\u745e 20
p305
aVnumber
p306
asS'w2idx'
p307
(dp308
g251
I248
sg20
I17
sg182
I179
sg265
I262
sg193
I190
sg144
I141
sg209
I206
sg29
I26
sg83
I80
sg137
I134
sg160
I157
sg5
I2
sg65
I62
sg273
I270
sg3
I0
sg207
I204
sg227
I224
sg285
I282
sg84
I81
sg198
I195
sg69
I66
sg304
I301
sg35
I32
sg134
I131
sg246
I243
sg225
I222
sg201
I198
sg214
I211
sg194
I191
sg298
I295
sg61
I58
sg196
I193
sg131
I128
sg77
I74
sg302
I299
sg50
I47
sg117
I114
sg206
I203
sg129
I126
sg176
I173
sg100
I97
sg42
I39
sg128
I125
sg213
I210
sg54
I51
sg46
I43
sg88
I85
sg274
I271
sg44
I41
sg244
I241
sg306
I303
sg241
I238
sg142
I139
sg216
I213
sg52
I49
sg254
I251
sg178
I175
sg179
I176
sg165
I162
sg112
I109
sg260
I257
sg195
I192
sg278
I275
sg292
I289
sg291
I288
sg79
I76
sg76
I73
sg224
I221
sg7
I4
sg236
I233
sg271
I268
sg243
I240
sg75
I72
sg294
I291
sg41
I38
sg245
I242
sg57
I54
sg25
I22
sg264
I261
sg139
I136
sg70
I67
sg102
I99
sg78
I75
sg259
I256
sg28
I25
sg276
I273
sg39
I36
sg219
I216
sg49
I46
sg130
I127
sg80
I77
sg293
I290
sg172
I169
sg55
I52
sg229
I226
sg233
I230
sg153
I150
sg92
I89
sg90
I87
sg97
I94
sg95
I92
sg74
I71
sg280
I277
sg133
I130
sg168
I165
sg282
I279
sg301
I298
sg284
I281
sg152
I149
sg234
I231
sg132
I129
sg192
I189
sg120
I117
sg101
I98
sg140
I137
sg17
I14
sg275
I272
sg270
I267
sg286
I283
sg279
I276
sg12
I9
sg290
I287
sg231
I228
sg66
I63
sg106
I103
sg303
I300
sg110
I107
sg268
I265
sg19
I16
sg175
I172
sg158
I155
sg63
I60
sg124
I121
sg71
I68
sg96
I93
sg237
I234
sg104
I101
sg115
I112
sg22
I19
sg114
I111
sg147
I144
sg250
I247
sg89
I86
sg93
I90
sg31
I28
sg223
I220
sg177
I174
sg143
I140
sg47
I44
sg167
I164
sg171
I168
sg164
I161
sg141
I138
sg91
I88
sg10
I7
sg215
I212
sg34
I31
sg154
I151
sg200
I197
sg261
I258
sg32
I29
sg23
I20
sg18
I15
sg189
I186
sg157
I154
sg126
I123
sg248
I245
sg113
I110
sg253
I250
sg180
I177
sg30
I27
sg62
I59
sg159
I156
sg109
I106
sg67
I64
sg249
I246
sg204
I201
sg300
I297
sg123
I120
sg13
I10
sg288
I285
sg247
I244
sg59
I56
sg151
I148
sg11
I8
sg94
I91
sg197
I194
sg263
I260
sg9
I6
sg221
I218
sg99
I96
sg138
I135
sg169
I166
sg272
I269
sg267
I264
sg162
I159
sg64
I61
sg266
I263
sg232
I229
sg40
I37
sg149
I146
sg170
I167
sg4
I1
sg235
I232
sg48
I45
sg6
I3
sg98
I95
sg116
I113
sg203
I200
sg226
I223
sg173
I170
sg136
I133
sg281
I278
sg86
I83
sg222
I219
sg181
I178
sg299
I296
sg146
I143
sg166
I163
sg210
I207
sg14
I11
sg228
I225
sg15
I12
sg27
I24
sg188
I185
sg108
I105
sg43
I40
sg51
I48
sg118
I115
sg212
I209
sg38
I35
sg72
I69
sg119
I116
sg87
I84
sg45
I42
sg238
I235
sg174
I171
sg187
I184
sg242
I239
sg24
I21
sg239
I236
sg262
I259
sg148
I145
sg183
I180
sg295
I292
sg103
I100
sg190
I187
sg81
I78
sg56
I53
sg186
I183
sg68
I65
sg277
I274
sg257
I254
sg202
I199
sg105
I102
sg161
I158
sg218
I215
sg240
I237
sg297
I294
sg16
I13
sg8
I5
sg53
I50
sg205
I202
sg220
I217
sg252
I249
sg305
I302
sg150
I147
sg58
I55
sg184
I181
sg60
I57
sg73
I70
sg82
I79
sg21
I18
sg255
I252
sg156
I153
sg107
I104
sg26
I23
sg289
I286
sg287
I284
sg127
I124
sg256
I253
sg122
I119
sg258
I255
sg155
I152
sg191
I188
sg37
I34
sg163
I160
sg199
I196
sg111
I108
sg269
I266
sg135
I132
sg230
I227
sg208
I205
sg125
I122
sg121
I118
sg296
I293
sg85
I82
sg283
I280
sg217
I214
sg185
I182
sg145
I142
sg211
I208
sg36
I33
sg33
I30
ss.