(dp0
S'idx2w'
p1
(lp2
VPAD
p3
aVUNK
p4
aVEOS
p5
aV\u4f60\u597d
p6
aVWELCOME
p7
aV\u5361\u7f57
p8
aV\u62c9
p9
aVDBSEARCH
p10
aVmodeldesc
p11
aV\u5361\u7f57\u62c9
p12
aV\u8f66\u578b
p13
aVQUERY
p14
aVask_modeldesc
p15
aV\u53c2\u6570
p16
aV\u914d\u7f6e
p17
aVparalist
p18
aV\u53c2\u6570\u914d\u7f6e
p19
aV\u663e\u793a
p20
aV\u6240\u6709
p21
aVSHOWALL
p22
aV\u4ef7\u683c
p23
aVask_factoryprice
p24
aV\u53e3\u7891
p25
aVHOW
p26
aV\u90fd
p27
aV\u6709
p28
aV\u4ec0\u4e48
p29
aV\u54c1\u8d28
p30
aVcomment
p31
aV\u9884\u7b97
p32
aV\u6cb9\u8017
p33
aV\u600e\u4e48\u6837
p34
aVask_rfuelconsumption
p35
aV\u6bd4\u8f83
p36
aVCOMPARE
p37
aV\u82f1\u6717
p38
aV\u548c
p39
aVS32017
p40
aV\u6b3e
p41
aV1.5
p42
aVL
p43
aV\u624b\u52a8
p44
aV\u8c6a\u7cfb
p45
aV\u533a\u522b
p46
aV\u745e\u98ces32017\u6b3e1.5l\u624b\u52a8
p47
aV\u541b\u5a01
p48
aV2015
p49
aV1.6
p50
aVT
p51
aV\u7cbe\u82f1
p52
aV\u6280\u672f\u578b
p53
aV2.0
p54
aVTGS
p55
aV\u8c6a\u60c5
p56
aV\u8fd0\u52a8\u7248
p57
aV\u76f8\u6bd4
p58
aV\u541b\u5a012015\u6b3e1.6t\u7cbe\u82f1\u6280\u672f\u578b
p59
aV\u541b\u5a012015\u6b3e2.0tgs\u8c6a\u60c5\u8fd0\u52a8\u7248
p60
aV\u7cbe\u82f1\u6280\u672f\u578b
p61
aV\u8c6a\u60c5\u8fd0\u52a8\u7248
p62
aVMINI2016
p63
aVTCOOPERSS
p64
aV\u591a\u5c11
p65
aV\u94b1
p66
aVmini2016\u6b3e2.0
p67
aV\u8d2d\u8f66
p68
aVPAYMENT
p69
aV\u4e0d\u770b
p70
aV\u4e86
p71
aV\u8bf7\u95ee
p72
aV\u662f
p73
aV\u60f3
p74
aV\u770b\u770b
p75
aV\u5176\u4ed6
p76
aV\u7684
p77
aV\u8f66
p78
aV\u5417
p79
aV\uff1f
p80
aV\u4e0d\u662f
p81
aV\u8fd8\u8981
p82
aV\u7ee7\u7eed
p83
aV\u4e86\u89e3
p84
aV\u4e4b\u524d
p85
aV\u770b
p86
aV\u4e48
p87
aV\u597d
p88
aV\u5427
p89
aV\uff0c
p90
aV\u518d\u89c1
p91
aV\u6b22\u8fce
p92
aV\u4e0b\u6b21
p93
aV\u5149\u4e34
p94
aV\u591a\u5c11\u94b1
p95
aV\u60a8
p96
aV\u5462
p97
aV\u6027\u80fd
p98
aV\u5185\u9970
p99
aV\u7b49
p100
aV\u8fd8\u6709
p101
aV\u60f3\u8981
p102
aV\u5185\u5bb9
p103
aV\u74e6\u529b
p104
aV\u4e5f
p105
aV\u652f\u6301
p106
aV\u3001
p107
aV\u5bf9\u6bd4
p108
aV\u529f\u80fd
p109
aV\u54e6
p110
aV\uff5e
p111
aV\u963f\u7279
p112
aV\u5179
p113
aV\u963f\u7279\u5179
p114
aV\u798f\u745e\u8fbe
p115
aV2014
p116
aV1.0
p117
aV\u9e3f\u8fd0
p118
aV\u7248
p119
aV\u6807\u51c6\u578b
p120
aVDA465
p121
aV\u7cfb\u6709
p122
aV\u798f\u745e\u8fbe2014\u6b3e1.0l\u9e3f\u8fd0\u7248\u6807\u51c6\u578bda465
p123
aV\u7cbe\u82f1\u6280\u672f\u578b \u8c6a\u60c5\u8fd0\u52a8\u7248
p124
aVor
p125
aV\u7ecf\u5178
p126
aV\u5168\u987a
p127
aV2016
p128
aV2.8
p129
aV\u67f4\u6cb9
p130
aV\u957f\u8f74
p131
aV3
p132
aV\u5ea7
p133
aV\u9ad8\u9876
p134
aV\u53a2\u5f0f
p135
aV\u8fd0\u8f93\u8f66
p136
aVJ
p137
aV\u7ecf\u5178\u5168\u987a2016\u6b3e2.8t\u67f4\u6cb9\u957f\u8f743\u5ea7\u9ad8\u9876\u53a2\u5f0f\u8fd0\u8f93\u8f66
p138
aV\u53c2\u6570\u8868
p139
aVprefer
p140
aV\u7ec6\u8282
p141
aVask_neishi
p142
aV\u7efc\u8ff0
p143
aV\u5b9d\u9a6c
p144
aV\u7cfb
p145
aV\u5b9d\u9a6c3\u7cfb
p146
aV\u6717
p147
aV\u9038
p148
aV201
p149
aVengine
p150
aV\u6717\u9038
p151
aVtransmisson
p152
aVfronttirespec
p153
aVbodystruc1
p154
aVseatnum
p155
aVautowarranty
p156
aVfrontsuspensiontype
p157
aVrearsuspensiontype
p158
aVfactory
p159
aVfuellabel
p160
aVdrivemode
p161
aVbodystruc2
p162
aVspeakernum
p163
aVmaxtorquespeed
p164
aVfactoryprice
p165
aVlenwidhig
p166
aVenginemodel
p167
aV\u54c8\u5f17
p168
aVH92016
p169
aV\u578b
p170
aV\u54c8\u5f17h92016\u6b3e2.0t\u7cbe\u82f1\u578b
p171
aV\u505a\u5de5
p172
aV\u9a7e\u9a76
p173
aV\u4e30\u987a
p174
aV2011
p175
aV1.3
p176
aV\u8c6a\u534e\u578b
p177
aV\u4e30\u987a2011\u6b3e1.3l\u8c6a\u534e\u578b
p178
aV\u96ea\u94c1\u9f99
p179
aVC5
p180
aV\u96ea\u94c1\u9f99c5
p181
aV\u4e1c\u98ce
p182
aV\u98ce\u5149
p183
aV3302014
p184
aV\u5b9e\u7cfb
p185
aV\u4e1c\u98ce\u98ce\u51493302014\u6b3e1.3l\u624b\u52a8
p186
aV\u8428\u666e
p187
aV\u4e24\u9a71
p188
aV\u8c6a\u534e\u7248
p189
aV5555
p190
aV\u5f53\u524d
p191
aV\u770b\u8f66
p192
aV,
p193
aV\u6362
p194
aV\u5230
p195
aV\u957f\u5b89
p196
aVCS75
p197
aV\u957f\u5b89cs75
p198
aV\u51ef\u7f8e\u745e
p199
aV\u5317\u4eac
p200
aV\u73b0\u4ee3
p201
aVix35201
p202
aV\u5317\u4eac\u73b0\u4ee3ix35201
p203
aV\u660e\u9510
p204
aV2017
p205
aV\u660e\u95102017\u6b3e
p206
aVCOMBINE
p207
aV\u5965\u8fea
p208
aVRS52
p209
aV\u5965\u8fears52
p210
aV\u51ef\u8d8a
p211
aV\u5c0a
p212
aV\u51ef\u8d8a2015\u6b3e1.5l\u624b\u52a8\u5c0a
p213
aV\u4e91
p214
aV1002014
p215
aV\u6b3e\u4e91
p216
aV1
p217
aV\u4e911002014\u6b3e\u4e911
p218
aV\u91d1\u65c5
p219
aV\u6d77\u72ee
p220
aV2010
p221
aV\u91d1\u65c5\u6d77\u72ee2010
p222
aVA32015
p223
aVSpor
p224
aV\u5965\u8feaa32015\u6b3e
p225
aV\u4f20\u797a
p226
aVGA3S
p227
aV\u89c6\u754c
p228
aV\u4f20\u797aga3s\u89c6\u754c2014\u6b3e1
p229
aV\u96c5\u79d1
p230
aV\u4ed5
p231
aV3.8
p232
aVGD
p233
aV\u96c5\u79d1\u4ed52014\u6b3e3.8gd
p234
aV\u98ce\u795e
p235
aVL602015
p236
aV1.8
p237
aV\u81ea\u52a8
p238
aV\u65b0
p239
aV\u4eab\u7cfb
p240
aV\u4e1c\u98ce\u98ce\u795el602015\u6b3e1.8l\u81ea\u52a8\u65b0
p241
aV\u957f\u57ce
p242
aVC502016
p243
aV\u8212\u9002
p244
aV\u957f\u57cec502016\u6b3e1.5t\u624b\u52a8\u8212\u9002
p245
aV\u8d77\u4e9a
p246
aVK22015
p247
aV\u8d77\u4e9ak22015\u6b3e
p248
aV\u5317\u6c7d
p249
aV\u5a01\u65fa
p250
aVS502016
p251
aV\u5317\u6c7d\u5a01\u65fas502016\u6b3e1.5
p252
aVH22016
p253
aV\u6b3e\u7ea2\u6807
p254
aV\u624b\u7cfb
p255
aV\u54c8\u5f17h22016\u6b3e\u7ea2\u68071.5t
p256
aV\u798f\u7530
p257
aV\u98ce\u666f
p258
aV\u798f\u7530\u98ce\u666f2014\u6b3e
p259
aV\u5b9d\u6c83
p260
aVBX7
p261
aV\u5b9d\u6c83bx7
p262
aV\u4f17\u6cf0
p263
aVZ5002015
p264
aV\u4f17\u6cf0z5002015\u6b3e
p265
aV\u96f7\u514b\u8428\u65af
p266
aVCT2015
p267
aVCT200
p268
aV\u96f7\u514b\u8428\u65afct2015\u6b3ect200
p269
aV\u5fa1\u98ce
p270
aV3.0
p271
aV\u9886\u5c0a\u7248
p272
aV\u9876\u914d
p273
aV\u7c73\u8272
p274
aV\u77ed
p275
aV\u8f74\u7cfb
p276
aV\u5fa1\u98ce2016\u6b3e3.0t\u9886\u5c0a\u7248\u9876\u914d\u7c73\u8272\u5185\u9970\u77ed
p277
aV\u5feb\u8fd0
p278
aV\u7248\u4f4e
p279
aV\u798f\u7530\u98ce\u666f2014\u6b3e2.0l\u5feb\u8fd0\u6807\u51c6\u578b\u957f\u8f74\u7248\u4f4e
p280
aV\u666f\u9038
p281
aV\u666f\u9038s502016\u6b3e
p282
aV\u601d\u57df
p283
aV\u7d22\u5170\u6258
p284
aV\u6b3e\u7d22\u5170\u6258
p285
aVL2
p286
aV.
p287
aV4L
p288
aV\u6c7d\u6cb9
p289
aV4WD
p290
aV\u5b9a\u5236
p291
aV5
p292
aVl2
p293
aV\u7d22\u5170\u62582015\u6b3e\u7d22\u5170\u6258
p294
aV4l
p295
aV\u6c7d\u6cb94wd\u5b9a\u5236\u72485
p296
aV\u62d3\u9646\u8005
p297
aV\u62d3\u9646\u80052015
p298
aVMINIROADST
p299
aVminiroadst
p300
aV\u8bb4\u6b4c
p301
aVCDX201
p302
aV20
p303
aV\u51ef\u7f8e\u745e 20
p304
aVnumber
p305
asS'w2idx'
p306
(dp307
g250
I247
sg20
I17
sg181
I178
sg264
I261
sg192
I189
sg143
I140
sg208
I205
sg29
I26
sg82
I79
sg136
I133
sg159
I156
sg5
I2
sg64
I61
sg272
I269
sg3
I0
sg206
I203
sg226
I223
sg284
I281
sg83
I80
sg197
I194
sg68
I65
sg303
I300
sg35
I32
sg133
I130
sg245
I242
sg224
I221
sg200
I197
sg213
I210
sg193
I190
sg297
I294
sg60
I57
sg195
I192
sg130
I127
sg76
I73
sg301
I298
sg49
I46
sg116
I113
sg205
I202
sg128
I125
sg175
I172
sg99
I96
sg41
I38
sg127
I124
sg212
I209
sg53
I50
sg45
I42
sg87
I84
sg273
I270
sg43
I40
sg243
I240
sg305
I302
sg240
I237
sg141
I138
sg215
I212
sg51
I48
sg253
I250
sg177
I174
sg178
I175
sg164
I161
sg111
I108
sg259
I256
sg194
I191
sg277
I274
sg291
I288
sg290
I287
sg78
I75
sg75
I72
sg223
I220
sg7
I4
sg235
I232
sg270
I267
sg242
I239
sg74
I71
sg293
I290
sg40
I37
sg244
I241
sg56
I53
sg25
I22
sg263
I260
sg138
I135
sg69
I66
sg101
I98
sg77
I74
sg258
I255
sg28
I25
sg275
I272
sg39
I36
sg218
I215
sg48
I45
sg129
I126
sg79
I76
sg292
I289
sg171
I168
sg54
I51
sg228
I225
sg232
I229
sg152
I149
sg91
I88
sg89
I86
sg96
I93
sg94
I91
sg73
I70
sg279
I276
sg132
I129
sg167
I164
sg281
I278
sg300
I297
sg283
I280
sg151
I148
sg233
I230
sg131
I128
sg191
I188
sg119
I116
sg100
I97
sg139
I136
sg17
I14
sg274
I271
sg285
I282
sg278
I275
sg12
I9
sg289
I286
sg230
I227
sg65
I62
sg105
I102
sg302
I299
sg109
I106
sg267
I264
sg19
I16
sg174
I171
sg157
I154
sg62
I59
sg123
I120
sg70
I67
sg95
I92
sg236
I233
sg103
I100
sg114
I111
sg22
I19
sg113
I110
sg146
I143
sg249
I246
sg88
I85
sg92
I89
sg31
I28
sg222
I219
sg176
I173
sg142
I139
sg46
I43
sg166
I163
sg170
I167
sg163
I160
sg140
I137
sg90
I87
sg10
I7
sg214
I211
sg34
I31
sg153
I150
sg199
I196
sg260
I257
sg32
I29
sg23
I20
sg18
I15
sg188
I185
sg156
I153
sg125
I122
sg247
I244
sg112
I109
sg252
I249
sg179
I176
sg30
I27
sg61
I58
sg158
I155
sg108
I105
sg66
I63
sg248
I245
sg203
I200
sg299
I296
sg122
I119
sg13
I10
sg287
I284
sg246
I243
sg58
I55
sg150
I147
sg11
I8
sg93
I90
sg196
I193
sg269
I266
sg9
I6
sg220
I217
sg98
I95
sg137
I134
sg168
I165
sg271
I268
sg266
I263
sg161
I158
sg63
I60
sg265
I262
sg231
I228
sg262
I259
sg148
I145
sg169
I166
sg4
I1
sg234
I231
sg47
I44
sg6
I3
sg97
I94
sg115
I112
sg202
I199
sg225
I222
sg172
I169
sg135
I132
sg280
I277
sg85
I82
sg221
I218
sg180
I177
sg298
I295
sg145
I142
sg165
I162
sg209
I206
sg14
I11
sg227
I224
sg15
I12
sg27
I24
sg187
I184
sg107
I104
sg42
I39
sg50
I47
sg117
I114
sg211
I208
sg38
I35
sg71
I68
sg118
I115
sg86
I83
sg44
I41
sg237
I234
sg173
I170
sg186
I183
sg241
I238
sg24
I21
sg238
I235
sg261
I258
sg147
I144
sg182
I179
sg294
I291
sg102
I99
sg189
I186
sg80
I77
sg55
I52
sg185
I182
sg67
I64
sg276
I273
sg256
I253
sg201
I198
sg104
I101
sg160
I157
sg217
I214
sg239
I236
sg296
I293
sg16
I13
sg8
I5
sg52
I49
sg204
I201
sg219
I216
sg251
I248
sg304
I301
sg149
I146
sg57
I54
sg183
I180
sg59
I56
sg72
I69
sg81
I78
sg21
I18
sg254
I251
sg155
I152
sg106
I103
sg26
I23
sg288
I285
sg286
I283
sg126
I123
sg255
I252
sg121
I118
sg257
I254
sg154
I151
sg190
I187
sg37
I34
sg162
I159
sg198
I195
sg110
I107
sg268
I265
sg134
I131
sg229
I226
sg207
I204
sg124
I121
sg120
I117
sg295
I292
sg84
I81
sg282
I279
sg216
I213
sg184
I181
sg144
I141
sg210
I207
sg36
I33
sg33
I30
ss.