(dp0
S'idx2w'
p1
(lp2
VPAD
p3
aVUNK
p4
aVEOS
p5
aV\u4f60\u597d
p6
aVCOMBINE
p7
aV\u5361\u7f57
p8
aV\u62c9
p9
aV\u8f66\u578b
p10
aV\u53c2\u6570
p11
aV\u914d\u7f6e
p12
aV\u663e\u793a
p13
aV\u6240\u6709
p14
aV\u4ef7\u683c
p15
aV\u53e3\u7891
p16
aV\u90fd
p17
aV\u6709
p18
aV\u4ec0\u4e48
p19
aV\u54c1\u8d28
p20
aV\u9884\u7b97
p21
aV\u6cb9\u8017
p22
aV\u600e\u4e48\u6837
p23
aV\u6bd4\u8f83
p24
aV\u82f1\u6717
p25
aV\u548c
p26
aV\u745e\u98ce
p27
aVS32017
p28
aV\u6b3e
p29
aV1.5
p30
aVL
p31
aV\u624b\u52a8
p32
aV\u8c6a\u7cfb
p33
aV\u533a\u522b
p34
aV\u541b\u5a01
p35
aV2015
p36
aV1.6
p37
aVT
p38
aV\u7cbe\u82f1
p39
aV\u6280\u672f\u578b
p40
aV2.0
p41
aVTGS
p42
aV\u8c6a\u60c5
p43
aV\u8fd0\u52a8\u7248
p44
aV\u76f8\u6bd4
p45
aVMINI2016
p46
aVTCOOPERSS
p47
aV\u591a\u5c11
p48
aV\u94b1
p49
aV\u8d2d\u8f66
p50
aV\u4e0d\u770b
p51
aV\u4e86
p52
aV\u4e0d\u662f
p53
aV\u518d\u89c1
p54
aV\u963f\u7279
p55
aV\u5179
p56
aV\u798f\u745e\u8fbe
p57
aV2014
p58
aV1.0
p59
aV\u9e3f\u8fd0
p60
aV\u7248
p61
aV\u6807\u51c6\u578b
p62
aVDA465
p63
aV\u7cfb\u6709
p64
aV\u7ecf\u5178
p65
aV\u5168\u987a
p66
aV2016
p67
aV2.8
p68
aV\u67f4\u6cb9
p69
aV\u957f\u8f74
p70
aV3
p71
aV\u5ea7
p72
aV\u9ad8\u9876
p73
aV\u53a2\u5f0f
p74
aV\u8fd0\u8f93\u8f66
p75
aVJ
p76
aV\u53c2\u6570\u8868
p77
aV\u5185\u9970
p78
aV\u7efc\u8ff0
p79
aV\u5b9d\u9a6c
p80
aV\u7cfb
p81
aV\u6717
p82
aV\u9038
p83
aV201
p84
aV\u54c8\u5f17
p85
aVH92016
p86
aV\u578b
p87
aV\u505a\u5de5
p88
aV\u7ec6\u8282
p89
aV\u9a7e\u9a76
p90
aV\u4e30\u987a
p91
aV2011
p92
aV1.3
p93
aV\u8c6a\u534e\u578b
p94
aV\u96ea\u94c1\u9f99
p95
aVC5
p96
aV\u4e1c\u98ce
p97
aV\u98ce\u5149
p98
aV3302014
p99
aV\u5b9e\u7cfb
p100
aV\u8428\u666e
p101
aV\u4e24\u9a71
p102
aV\u8c6a\u534e\u7248
p103
aV5555
p104
aV\u957f\u5b89
p105
aVCS75
p106
aV\u6027\u80fd
p107
aV\u51ef\u7f8e\u745e
p108
aV\u5317\u4eac
p109
aV\u73b0\u4ee3
p110
aVix35201
p111
aV\u660e\u9510
p112
aV2017
p113
aV\u5965\u8fea
p114
aVRS52
p115
aV\u51ef\u8d8a
p116
aV\u5c0a
p117
aV\u4e91
p118
aV1002014
p119
aV\u6b3e\u4e91
p120
aV1
p121
aV\u91d1\u65c5
p122
aV\u6d77\u72ee
p123
aV2010
p124
aVA32015
p125
aVSpor
p126
aV\u4f20\u797a
p127
aVGA3S
p128
aV\u89c6\u754c
p129
aV\u96c5\u79d1
p130
aV\u4ed5
p131
aV3.8
p132
aVGD
p133
aV\u98ce\u795e
p134
aVL602015
p135
aV1.8
p136
aV\u81ea\u52a8
p137
aV\u65b0
p138
aV\u4eab\u7cfb
p139
aV\u957f\u57ce
p140
aVC502016
p141
aV\u8212\u9002
p142
aV\u8d77\u4e9a
p143
aVK22015
p144
aV\u5317\u6c7d
p145
aV\u5a01\u65fa
p146
aVS502016
p147
aVH22016
p148
aV\u6b3e\u7ea2\u6807
p149
aV\u624b\u7cfb
p150
aV\u798f\u7530
p151
aV\u98ce\u666f
p152
aV\u5b9d\u6c83
p153
aVBX7
p154
aV\u4f17\u6cf0
p155
aVZ5002015
p156
aV\u96f7\u514b\u8428\u65af
p157
aVCT2015
p158
aVCT200
p159
aV\u5fa1\u98ce
p160
aV3.0
p161
aV\u9886\u5c0a\u7248
p162
aV\u9876\u914d
p163
aV\u7c73\u8272
p164
aV\u77ed
p165
aV\u8f74\u7cfb
p166
aV\u5feb\u8fd0
p167
aV\u7248\u4f4e
p168
aV\u666f\u9038
p169
aV\u601d\u57df
p170
aV\u7d22\u5170\u6258
p171
aV\u6b3e\u7d22\u5170\u6258
p172
aVL2
p173
aV.
p174
aV4L
p175
aV\u6c7d\u6cb9
p176
aV4WD
p177
aV\u5b9a\u5236
p178
aV5
p179
aV\u62d3\u9646\u8005
p180
aVMINIROADST
p181
aV\u8bb4\u6b4c
p182
aVCDX201
p183
aV20
p184
asS'w2idx'
p185
(dp186
g13
I10
sg162
I159
sg156
I153
sg79
I76
sg114
I111
sg19
I16
sg75
I72
sg5
I2
sg47
I44
sg7
I4
sg127
I124
sg171
I168
sg50
I47
sg184
I181
sg72
I69
sg126
I123
sg109
I106
sg60
I57
sg105
I102
sg36
I33
sg58
I55
sg113
I110
sg67
I64
sg92
I89
sg78
I75
sg29
I26
sg66
I63
sg40
I37
sg33
I30
sg61
I58
sg31
I28
sg139
I136
sg89
I86
sg119
I116
sg38
I35
sg148
I145
sg94
I91
sg106
I103
sg178
I175
sg177
I174
sg69
I66
sg125
I122
sg134
I131
sg160
I157
sg101
I98
sg140
I137
sg28
I25
sg142
I139
sg43
I40
sg81
I78
sg155
I152
sg152
I149
sg18
I15
sg165
I162
sg26
I23
sg35
I32
sg68
I65
sg161
I158
sg41
I38
sg129
I126
sg132
I129
sg54
I51
sg120
I117
sg163
I160
sg71
I68
sg169
I166
sg170
I167
sg144
I141
sg12
I9
sg179
I176
sg77
I74
sg70
I67
sg167
I164
sg176
I173
sg130
I127
sg48
I45
sg183
I180
sg91
I88
sg141
I138
sg51
I48
sg135
I132
sg122
I119
sg158
I155
sg56
I53
sg145
I142
sg73
I70
sg111
I108
sg34
I31
sg87
I84
sg117
I114
sg147
I144
sg118
I115
sg23
I20
sg108
I105
sg153
I150
sg21
I18
sg15
I12
sg102
I99
sg55
I52
sg95
I92
sg20
I17
sg93
I90
sg174
I171
sg49
I46
sg181
I178
sg64
I61
sg10
I7
sg143
I140
sg45
I42
sg9
I6
sg123
I120
sg107
I104
sg76
I73
sg85
I82
sg157
I154
sg104
I101
sg46
I43
sg131
I128
sg27
I24
sg83
I80
sg86
I83
sg4
I1
sg6
I3
sg146
I143
sg57
I54
sg88
I85
sg74
I71
sg124
I121
sg96
I93
sg115
I112
sg168
I165
sg128
I125
sg17
I14
sg3
I0
sg30
I27
sg37
I34
sg59
I56
sg116
I113
sg25
I22
sg52
I49
sg32
I29
sg136
I133
sg90
I87
sg137
I134
sg82
I79
sg97
I94
sg103
I100
sg42
I39
sg100
I97
sg166
I163
sg110
I107
sg121
I118
sg138
I135
sg11
I8
sg16
I13
sg8
I5
sg39
I36
sg112
I109
sg172
I169
sg180
I177
sg84
I81
sg44
I41
sg98
I95
sg53
I50
sg14
I11
sg149
I146
sg175
I172
sg173
I170
sg65
I62
sg150
I147
sg63
I60
sg151
I148
sg159
I156
sg164
I161
sg182
I179
sg154
I151
sg62
I59
sg133
I130
sg99
I96
sg80
I77
sg24
I21
sg22
I19
ss.