(dp0
S'idx2w'
p1
(lp2
VPAD
p3
aVUNK
p4
aVEOS
p5
aV\u4f60\u597d
p6
aV\u5361\u7f57
p7
aV\u62c9
p8
aV\u8f66\u578b
p9
aV\u53c2\u6570
p10
aV\u914d\u7f6e
p11
aV\u663e\u793a
p12
aV\u6240\u6709
p13
aV\u4ef7\u683c
p14
aV\u53e3\u7891
p15
aV\u90fd
p16
aV\u6709
p17
aV\u4ec0\u4e48
p18
aV\u54c1\u8d28
p19
aV\u9884\u7b97
p20
aV\u6cb9\u8017
p21
aV\u600e\u4e48\u6837
p22
aV\u6bd4\u8f83
p23
aV\u82f1\u6717
p24
aV\u548c
p25
aV\u745e\u98ce
p26
aVS32017
p27
aV\u6b3e
p28
aV1.5
p29
aVL
p30
aV\u624b\u52a8
p31
aV\u8c6a\u7cfb
p32
aV\u533a\u522b
p33
aV\u541b\u5a01
p34
aV2015
p35
aV1.6
p36
aVT
p37
aV\u7cbe\u82f1
p38
aV\u6280\u672f\u578b
p39
aV2.0
p40
aVTGS
p41
aV\u8c6a\u60c5
p42
aV\u8fd0\u52a8\u7248
p43
aV\u76f8\u6bd4
p44
aVMINI2016
p45
aVTCOOPERSS
p46
aV\u591a\u5c11
p47
aV\u94b1
p48
aV\u8d2d\u8f66
p49
aV\u4e0d\u770b
p50
aV\u4e86
p51
aV\u4e0d\u662f
p52
aV\u518d\u89c1
p53
aV\u963f\u7279
p54
aV\u5179
p55
aV\u798f\u745e\u8fbe
p56
aV2014
p57
aV1.0
p58
aV\u9e3f\u8fd0
p59
aV\u7248
p60
aV\u6807\u51c6\u578b
p61
aVDA465
p62
aV\u7cfb\u6709
p63
aV\u7ecf\u5178
p64
aV\u5168\u987a
p65
aV2016
p66
aV2.8
p67
aV\u67f4\u6cb9
p68
aV\u957f\u8f74
p69
aV3
p70
aV\u5ea7
p71
aV\u9ad8\u9876
p72
aV\u53a2\u5f0f
p73
aV\u8fd0\u8f93\u8f66
p74
aVJ
p75
aV\u53c2\u6570\u8868
p76
aV\u5185\u9970
p77
aV\u7efc\u8ff0
p78
aV\u5b9d\u9a6c
p79
aV\u7cfb
p80
aV\u6717
p81
aV\u9038
p82
aV201
p83
aV\u54c8\u5f17
p84
aVH92016
p85
aV\u578b
p86
aV\u505a\u5de5
p87
aV\u7ec6\u8282
p88
aV\u9a7e\u9a76
p89
aV\u4e30\u987a
p90
aV2011
p91
aV1.3
p92
aV\u8c6a\u534e\u578b
p93
aV\u96ea\u94c1\u9f99
p94
aVC5
p95
aV\u4e1c\u98ce
p96
aV\u98ce\u5149
p97
aV3302014
p98
aV\u5b9e\u7cfb
p99
aV\u8428\u666e
p100
aV\u4e24\u9a71
p101
aV\u8c6a\u534e\u7248
p102
aV5555
p103
aV\u957f\u5b89
p104
aVCS75
p105
aV\u51ef\u7f8e\u745e
p106
aV\u5317\u4eac
p107
aV\u73b0\u4ee3
p108
aVix35201
p109
aV\u660e\u9510
p110
aV2017
p111
aV\u5965\u8fea
p112
aVRS52
p113
aV\u51ef\u8d8a
p114
aV\u5c0a
p115
aV\u4e91
p116
aV1002014
p117
aV\u6b3e\u4e91
p118
aV1
p119
aV\u91d1\u65c5
p120
aV\u6d77\u72ee
p121
aV2010
p122
aVA32015
p123
aVSpor
p124
aV\u4f20\u797a
p125
aVGA3S
p126
aV\u89c6\u754c
p127
aV\u96c5\u79d1
p128
aV\u4ed5
p129
aV3.8
p130
aVGD
p131
aV\u98ce\u795e
p132
aVL602015
p133
aV1.8
p134
aV\u81ea\u52a8
p135
aV\u65b0
p136
aV\u4eab\u7cfb
p137
aV\u6027\u80fd
p138
aV\u957f\u57ce
p139
aVC502016
p140
aV\u8212\u9002
p141
aV\u8d77\u4e9a
p142
aVK22015
p143
aV\u5317\u6c7d
p144
aV\u5a01\u65fa
p145
aVS502016
p146
aVH22016
p147
aV\u6b3e\u7ea2\u6807
p148
aV\u624b\u7cfb
p149
aV\u798f\u7530
p150
aV\u98ce\u666f
p151
aV\u5b9d\u6c83
p152
aVBX7
p153
aV\u4f17\u6cf0
p154
aVZ5002015
p155
aV\u96f7\u514b\u8428\u65af
p156
aVCT2015
p157
aVCT200
p158
aV\u5fa1\u98ce
p159
aV3.0
p160
aV\u9886\u5c0a\u7248
p161
aV\u9876\u914d
p162
aV\u7c73\u8272
p163
aV\u77ed
p164
aV\u8f74\u7cfb
p165
aV\u5feb\u8fd0
p166
aV\u7248\u4f4e
p167
aV\u666f\u9038
p168
aV\u601d\u57df
p169
aV\u7d22\u5170\u6258
p170
aV\u6b3e\u7d22\u5170\u6258
p171
aVL2
p172
aV.
p173
aV4L
p174
aV\u6c7d\u6cb9
p175
aV4WD
p176
aV\u5b9a\u5236
p177
aV5
p178
aV\u62d3\u9646\u8005
p179
aVMINIROADST
p180
aV\u8bb4\u6b4c
p181
aVCDX201
p182
aV20
p183
asS'w2idx'
p184
(dp185
g12
I9
sg161
I158
sg155
I152
sg78
I75
sg112
I109
sg18
I15
sg74
I71
sg5
I2
sg46
I43
sg3
I0
sg125
I122
sg170
I167
sg49
I46
sg183
I180
sg71
I68
sg124
I121
sg107
I104
sg59
I56
sg104
I101
sg35
I32
sg57
I54
sg111
I108
sg66
I63
sg91
I88
sg77
I74
sg28
I25
sg65
I62
sg39
I36
sg32
I29
sg60
I57
sg30
I27
sg137
I134
sg88
I85
sg117
I114
sg37
I34
sg147
I144
sg93
I90
sg105
I102
sg177
I174
sg176
I173
sg68
I65
sg123
I120
sg132
I129
sg159
I156
sg139
I136
sg27
I24
sg141
I138
sg42
I39
sg80
I77
sg154
I151
sg151
I148
sg17
I14
sg164
I161
sg25
I22
sg34
I31
sg67
I64
sg160
I157
sg40
I37
sg127
I124
sg130
I127
sg53
I50
sg118
I115
sg162
I159
sg70
I67
sg168
I165
sg169
I166
sg143
I140
sg11
I8
sg178
I175
sg76
I73
sg69
I66
sg166
I163
sg175
I172
sg128
I125
sg47
I44
sg182
I179
sg90
I87
sg140
I137
sg50
I47
sg133
I130
sg120
I117
sg157
I154
sg55
I52
sg144
I141
sg72
I69
sg109
I106
sg33
I30
sg86
I83
sg115
I112
sg146
I143
sg116
I113
sg22
I19
sg106
I103
sg152
I149
sg20
I17
sg14
I11
sg101
I98
sg54
I51
sg94
I91
sg19
I16
sg92
I89
sg173
I170
sg48
I45
sg180
I177
sg63
I60
sg9
I6
sg142
I139
sg44
I41
sg8
I5
sg121
I118
sg138
I135
sg75
I72
sg84
I81
sg156
I153
sg103
I100
sg45
I42
sg129
I126
sg26
I23
sg82
I79
sg85
I82
sg4
I1
sg6
I3
sg145
I142
sg56
I53
sg87
I84
sg73
I70
sg122
I119
sg95
I92
sg113
I110
sg167
I164
sg126
I123
sg16
I13
sg100
I97
sg29
I26
sg36
I33
sg58
I55
sg114
I111
sg24
I21
sg51
I48
sg31
I28
sg134
I131
sg89
I86
sg135
I132
sg81
I78
sg96
I93
sg102
I99
sg41
I38
sg99
I96
sg165
I162
sg108
I105
sg119
I116
sg136
I133
sg10
I7
sg15
I12
sg7
I4
sg38
I35
sg110
I107
sg171
I168
sg179
I176
sg83
I80
sg43
I40
sg97
I94
sg52
I49
sg13
I10
sg148
I145
sg174
I171
sg172
I169
sg64
I61
sg149
I146
sg62
I59
sg150
I147
sg158
I155
sg163
I160
sg181
I178
sg153
I150
sg61
I58
sg131
I128
sg98
I95
sg79
I76
sg23
I20
sg21
I18
ss.